; Function Attrs: nounwind uwtable
define ptr @l___private_Lean_Meta_Tactic_Grind_Split_0__Lean_Meta_Grind_isCongrToPrevSplit(ptr noundef %0, ptr noundef %1, ptr noundef %2, ptr noundef %3, ptr noundef %4, ptr noundef %5, ptr noundef %6, ptr noundef %7, ptr noundef %8, ptr noundef %9) local_unnamed_addr #0 {
  %11 = tail call zeroext i8 @l_Lean_Expr_isApp(ptr noundef %0) #4
  %12 = icmp eq i8 %11, 0
  br i1 %12, label %13, label %101

13:                                               ; preds = %10
  %14 = ptrtoint ptr %8 to i64
  %15 = and i64 %14, 1
  %.not = icmp eq i64 %15, 0
  br i1 %.not, label %16, label %lean_dec.exit36

16:                                               ; preds = %13
  %17 = load i32, ptr %8, align 4, !tbaa !10
  %18 = icmp sgt i32 %17, 1
  br i1 %18, label %19, label %21, !prof !13

19:                                               ; preds = %16
  %20 = add nsw i32 %17, -1
  store i32 %20, ptr %8, align 4, !tbaa !10
  br label %lean_dec.exit36

21:                                               ; preds = %16
  %.not.i = icmp eq i32 %17, 0
  br i1 %.not.i, label %lean_dec.exit36, label %22

22:                                               ; preds = %21
  tail call void @lean_dec_ref_cold(ptr noundef nonnull %8) #4
  br label %lean_dec.exit36

lean_dec.exit36:                                  ; preds = %22, %21, %19, %13
  %23 = ptrtoint ptr %7 to i64
  %24 = and i64 %23, 1
  %.not53 = icmp eq i64 %24, 0
  br i1 %.not53, label %25, label %lean_dec.exit35

25:                                               ; preds = %lean_dec.exit36
  %26 = load i32, ptr %7, align 4, !tbaa !10
  %27 = icmp sgt i32 %26, 1
  br i1 %27, label %28, label %30, !prof !13

28:                                               ; preds = %25
  %29 = add nsw i32 %26, -1
  store i32 %29, ptr %7, align 4, !tbaa !10
  br label %lean_dec.exit35

30:                                               ; preds = %25
  %.not.i37 = icmp eq i32 %26, 0
  br i1 %.not.i37, label %lean_dec.exit35, label %31

31:                                               ; preds = %30
  tail call void @lean_dec_ref_cold(ptr noundef nonnull %7) #4
  br label %lean_dec.exit35

lean_dec.exit35:                                  ; preds = %31, %30, %28, %lean_dec.exit36
  %32 = ptrtoint ptr %6 to i64
  %33 = and i64 %32, 1
  %.not54 = icmp eq i64 %33, 0
  br i1 %.not54, label %34, label %lean_dec.exit34

34:                                               ; preds = %lean_dec.exit35
  %35 = load i32, ptr %6, align 4, !tbaa !10
  %36 = icmp sgt i32 %35, 1
  br i1 %36, label %37, label %39, !prof !13

37:                                               ; preds = %34
  %38 = add nsw i32 %35, -1
  store i32 %38, ptr %6, align 4, !tbaa !10
  br label %lean_dec.exit34

39:                                               ; preds = %34
  %.not.i39 = icmp eq i32 %35, 0
  br i1 %.not.i39, label %lean_dec.exit34, label %40

40:                                               ; preds = %39
  tail call void @lean_dec_ref_cold(ptr noundef nonnull %6) #4
  br label %lean_dec.exit34

lean_dec.exit34:                                  ; preds = %40, %39, %37, %lean_dec.exit35
  %41 = ptrtoint ptr %5 to i64
  %42 = and i64 %41, 1
  %.not55 = icmp eq i64 %42, 0
  br i1 %.not55, label %43, label %lean_dec.exit33

43:                                               ; preds = %lean_dec.exit34
  %44 = load i32, ptr %5, align 4, !tbaa !10
  %45 = icmp sgt i32 %44, 1
  br i1 %45, label %46, label %48, !prof !13

46:                                               ; preds = %43
  %47 = add nsw i32 %44, -1
  store i32 %47, ptr %5, align 4, !tbaa !10
  br label %lean_dec.exit33

48:                                               ; preds = %43
  %.not.i41 = icmp eq i32 %44, 0
  br i1 %.not.i41, label %lean_dec.exit33, label %49

49:                                               ; preds = %48
  tail call void @lean_dec_ref_cold(ptr noundef nonnull %5) #4
  br label %lean_dec.exit33

lean_dec.exit33:                                  ; preds = %49, %48, %46, %lean_dec.exit34
  %50 = ptrtoint ptr %4 to i64
  %51 = and i64 %50, 1
  %.not56 = icmp eq i64 %51, 0
  br i1 %.not56, label %52, label %lean_dec.exit32

52:                                               ; preds = %lean_dec.exit33
  %53 = load i32, ptr %4, align 4, !tbaa !10
  %54 = icmp sgt i32 %53, 1
  br i1 %54, label %55, label %57, !prof !13

55:                                               ; preds = %52
  %56 = add nsw i32 %53, -1
  store i32 %56, ptr %4, align 4, !tbaa !10
  br label %lean_dec.exit32

57:                                               ; preds = %52
  %.not.i43 = icmp eq i32 %53, 0
  br i1 %.not.i43, label %lean_dec.exit32, label %58

58:                                               ; preds = %57
  tail call void @lean_dec_ref_cold(ptr noundef nonnull %4) #4
  br label %lean_dec.exit32

lean_dec.exit32:                                  ; preds = %58, %57, %55, %lean_dec.exit33
  %59 = ptrtoint ptr %3 to i64
  %60 = and i64 %59, 1
  %.not57 = icmp eq i64 %60, 0
  br i1 %.not57, label %61, label %lean_dec.exit31

61:                                               ; preds = %lean_dec.exit32
  %62 = load i32, ptr %3, align 4, !tbaa !10
  %63 = icmp sgt i32 %62, 1
  br i1 %63, label %64, label %66, !prof !13

64:                                               ; preds = %61
  %65 = add nsw i32 %62, -1
  store i32 %65, ptr %3, align 4, !tbaa !10
  br label %lean_dec.exit31

66:                                               ; preds = %61
  %.not.i45 = icmp eq i32 %62, 0
  br i1 %.not.i45, label %lean_dec.exit31, label %67

67:                                               ; preds = %66
  tail call void @lean_dec_ref_cold(ptr noundef nonnull %3) #4
  br label %lean_dec.exit31

lean_dec.exit31:                                  ; preds = %67, %66, %64, %lean_dec.exit32
  %68 = ptrtoint ptr %2 to i64
  %69 = and i64 %68, 1
  %.not58 = icmp eq i64 %69, 0
  br i1 %.not58, label %70, label %lean_dec.exit30

70:                                               ; preds = %lean_dec.exit31
  %71 = load i32, ptr %2, align 4, !tbaa !10
  %72 = icmp sgt i32 %71, 1
  br i1 %72, label %73, label %75, !prof !13

73:                                               ; preds = %70
  %74 = add nsw i32 %71, -1
  store i32 %74, ptr %2, align 4, !tbaa !10
  br label %lean_dec.exit30

75:                                               ; preds = %70
  %.not.i47 = icmp eq i32 %71, 0
  br i1 %.not.i47, label %lean_dec.exit30, label %76

76:                                               ; preds = %75
  tail call void @lean_dec_ref_cold(ptr noundef nonnull %2) #4
  br label %lean_dec.exit30

lean_dec.exit30:                                  ; preds = %76, %75, %73, %lean_dec.exit31
  %77 = ptrtoint ptr %1 to i64
  %78 = and i64 %77, 1
  %.not59 = icmp eq i64 %78, 0
  br i1 %.not59, label %79, label %lean_dec.exit29

79:                                               ; preds = %lean_dec.exit30
  %80 = load i32, ptr %1, align 4, !tbaa !10
  %81 = icmp sgt i32 %80, 1
  br i1 %81, label %82, label %84, !prof !13

82:                                               ; preds = %79
  %83 = add nsw i32 %80, -1
  store i32 %83, ptr %1, align 4, !tbaa !10
  br label %lean_dec.exit29

84:                                               ; preds = %79
  %.not.i49 = icmp eq i32 %80, 0
  br i1 %.not.i49, label %lean_dec.exit29, label %85

85:                                               ; preds = %84
  tail call void @lean_dec_ref_cold(ptr noundef nonnull %1) #4
  br label %lean_dec.exit29

lean_dec.exit29:                                  ; preds = %85, %84, %82, %lean_dec.exit30
  %86 = ptrtoint ptr %0 to i64
  %87 = and i64 %86, 1
  %.not60 = icmp eq i64 %87, 0
  br i1 %.not60, label %88, label %lean_dec.exit

88:                                               ; preds = %lean_dec.exit29
  %89 = load i32, ptr %0, align 4, !tbaa !10
  %90 = icmp sgt i32 %89, 1
  br i1 %90, label %91, label %93, !prof !13

91:                                               ; preds = %88
  %92 = add nsw i32 %89, -1
  store i32 %92, ptr %0, align 4, !tbaa !10
  br label %lean_dec.exit

93:                                               ; preds = %88
  %.not.i51 = icmp eq i32 %89, 0
  br i1 %.not.i51, label %lean_dec.exit, label %94

94:                                               ; preds = %93
  tail call void @lean_dec_ref_cold(ptr noundef nonnull %0) #4
  br label %lean_dec.exit

lean_dec.exit:                                    ; preds = %94, %93, %91, %lean_dec.exit29
  tail call void @lean_inc_heartbeat() #4
  %95 = tail call noalias ptr @mi_malloc_small(i64 noundef 24) #4
  %96 = icmp eq ptr %95, null
  br i1 %96, label %97, label %lean_alloc_ctor.exit

97:                                               ; preds = %lean_dec.exit
  tail call void @lean_internal_panic_out_of_memory() #5
  unreachable

lean_alloc_ctor.exit:                             ; preds = %lean_dec.exit
  %98 = getelementptr inbounds nuw i8, ptr %95, i64 4
  store i32 1, ptr %95, align 4, !tbaa !10
  store i32 131096, ptr %98, align 4
  %99 = getelementptr inbounds nuw i8, ptr %95, i64 8
  store ptr inttoptr (i64 1 to ptr), ptr %99, align 8, !tbaa !4
  %100 = getelementptr inbounds nuw i8, ptr %95, i64 16
  store ptr %9, ptr %100, align 8, !tbaa !4
  br label %103

101:                                              ; preds = %10
  %102 = tail call ptr @l___private_Lean_Meta_Tactic_Grind_Split_0__Lean_Meta_Grind_isCongrToPrevSplit___lambda__2(ptr noundef %0, ptr nonnull poison, ptr noundef %1, ptr noundef %2, ptr noundef %3, ptr noundef %4, ptr noundef %5, ptr noundef %6, ptr noundef %7, ptr noundef %8, ptr noundef %9)
  br label %103

103:                                              ; preds = %101, %lean_alloc_ctor.exit
  %.0 = phi ptr [ %95, %lean_alloc_ctor.exit ], [ %102, %101 ]
  ret ptr %.0
}